target datalayout = "e-m:e-p270:32:32-p271:32:32-p272:64:64-i64:64-i128:128-f80:128-n8:16:32:64-S128"
target triple = "x86_64-pc-linux-gnu"

%struct.t_trxstatus = type { i32, i32, float, float, ptr, ptr, ptr, i32, ptr }
%"class.std::filesystem::__cxx11::path" = type { %"class.std::__cxx11::basic_string", %"struct.std::filesystem::__cxx11::path::_List" }
%"class.std::__cxx11::basic_string" = type { %"struct.std::__cxx11::basic_string<char>::_Alloc_hider", i64, %union.anon }
%"struct.std::__cxx11::basic_string<char>::_Alloc_hider" = type { ptr }
%union.anon = type { i64, [8 x i8] }
%"struct.std::filesystem::__cxx11::path::_List" = type { %"class.std::unique_ptr" }
%"class.std::unique_ptr" = type { %"struct.std::__uniq_ptr_data" }
%"struct.std::__uniq_ptr_data" = type { %"class.std::__uniq_ptr_impl" }
%"class.std::__uniq_ptr_impl" = type { %"class.std::tuple" }
%"class.std::tuple" = type { %"struct.std::_Tuple_impl" }
%"struct.std::_Tuple_impl" = type { %"struct.std::_Head_base.1" }
%"struct.std::_Head_base.1" = type { ptr }
%struct.t_trxframe = type { i32, i8, i32, i8, i64, i8, float, i8, i8, float, i32, i8, ptr, i8, float, i8, ptr, i8, ptr, i8, ptr, i8, [3 x [3 x float]], i8, i32, i8, ptr }
%struct.t_atoms = type { i32, ptr, ptr, ptr, ptr, i32, ptr, ptr, i8, i8, i8, i8, i8 }

@.str.2 = private unnamed_addr constant [122 x i8] c"generated/home/dtcxzyw/WorkSpace/Projects/compilers/llvm-opt-benchmark/bench/gromacs/gromacs/src/gromacs/fileio/trxio.cpp\00", align 1
@.str.30 = private unnamed_addr constant [7 x i8] c"symtab\00", align 1
@stderr = external global ptr, align 8
@.str.31 = private unnamed_addr constant [17 x i8] c" '%s', %d atoms\0A\00", align 1
@.str.32 = private unnamed_addr constant [8 x i8] c" step= \00", align 1
@.str.33 = private unnamed_addr constant [4 x i8] c"%ld\00", align 1
@.str.34 = private unnamed_addr constant [5 x i8] c" t= \00", align 1
@.str.35 = private unnamed_addr constant [4 x i8] c"%lf\00", align 1
@.str.36 = private unnamed_addr constant [52 x i8] c"Number of atoms in pdb frame %d is %d instead of %d\00", align 1

; Function Attrs: mustprogress nounwind uwtable
define internal void @_ZL9copy_rvecPKfPf(ptr noundef %0, ptr noundef %1) #0 {
  %3 = alloca ptr, align 8
  %4 = alloca ptr, align 8
  store ptr %0, ptr %3, align 8
  store ptr %1, ptr %4, align 8
  %5 = load ptr, ptr %3, align 8
  %6 = getelementptr inbounds float, ptr %5, i64 0
  %7 = load float, ptr %6, align 4
  %8 = load ptr, ptr %4, align 8
  %9 = getelementptr inbounds float, ptr %8, i64 0
  store float %7, ptr %9, align 4
  %10 = load ptr, ptr %3, align 8
  %11 = getelementptr inbounds float, ptr %10, i64 1
  %12 = load float, ptr %11, align 4
  %13 = load ptr, ptr %4, align 8
  %14 = getelementptr inbounds float, ptr %13, i64 1
  store float %12, ptr %14, align 4
  %15 = load ptr, ptr %3, align 8
  %16 = getelementptr inbounds float, ptr %15, i64 2
  %17 = load float, ptr %16, align 4
  %18 = load ptr, ptr %4, align 8
  %19 = getelementptr inbounds float, ptr %18, i64 2
  store float %17, ptr %19, align 4
  ret void
}

; Function Attrs: mustprogress nounwind uwtable
define internal void @_ZL8copy_matPA3_KfPA3_f(ptr noundef %0, ptr noundef %1) #0 {
  %3 = alloca ptr, align 8
  %4 = alloca ptr, align 8
  store ptr %0, ptr %3, align 8
  store ptr %1, ptr %4, align 8
  %5 = load ptr, ptr %3, align 8
  %6 = getelementptr inbounds [3 x float], ptr %5, i64 0
  %7 = getelementptr inbounds [3 x float], ptr %6, i64 0, i64 0
  %8 = load ptr, ptr %4, align 8
  %9 = getelementptr inbounds [3 x float], ptr %8, i64 0
  %10 = getelementptr inbounds [3 x float], ptr %9, i64 0, i64 0
  call void @_ZL9copy_rvecPKfPf(ptr noundef %7, ptr noundef %10)
  %11 = load ptr, ptr %3, align 8
  %12 = getelementptr inbounds [3 x float], ptr %11, i64 1
  %13 = getelementptr inbounds [3 x float], ptr %12, i64 0, i64 0
  %14 = load ptr, ptr %4, align 8
  %15 = getelementptr inbounds [3 x float], ptr %14, i64 1
  %16 = getelementptr inbounds [3 x float], ptr %15, i64 0, i64 0
  call void @_ZL9copy_rvecPKfPf(ptr noundef %13, ptr noundef %16)
  %17 = load ptr, ptr %3, align 8
  %18 = getelementptr inbounds [3 x float], ptr %17, i64 2
  %19 = getelementptr inbounds [3 x float], ptr %18, i64 0, i64 0
  %20 = load ptr, ptr %4, align 8
  %21 = getelementptr inbounds [3 x float], ptr %20, i64 2
  %22 = getelementptr inbounds [3 x float], ptr %21, i64 0, i64 0
  call void @_ZL9copy_rvecPKfPf(ptr noundef %19, ptr noundef %22)
  ret void
}

; Function Attrs: mustprogress nounwind uwtable
define noundef i32 @_Z12nframes_readP11t_trxstatus(ptr noundef %0) #0 {
  %2 = alloca ptr, align 8
  store ptr %0, ptr %2, align 8
  %3 = load ptr, ptr %2, align 8
  %4 = getelementptr inbounds %struct.t_trxstatus, ptr %3, i32 0, i32 1
  %5 = load i32, ptr %4, align 4
  ret i32 %5
}

; Function Attrs: mustprogress nounwind uwtable
define void @_Z18setTrxFramePbcTypeP10t_trxframe7PbcType(ptr noundef %0, i32 noundef %1) #0 {
  %3 = alloca ptr, align 8
  %4 = alloca i32, align 4
  store ptr %0, ptr %3, align 8
  store i32 %1, ptr %4, align 4
  %5 = load i32, ptr %4, align 4
  %6 = icmp eq i32 %5, 4
  %7 = load ptr, ptr %3, align 8
  %8 = getelementptr inbounds %struct.t_trxframe, ptr %7, i32 0, i32 23
  %9 = zext i1 %6 to i8
  store i8 %9, ptr %8, align 8
  %10 = load i32, ptr %4, align 4
  %11 = load ptr, ptr %3, align 8
  %12 = getelementptr inbounds %struct.t_trxframe, ptr %11, i32 0, i32 24
  store i32 %10, ptr %12, align 4
  ret void
}

; Function Attrs: mustprogress uwtable
define internal void @_ZL14gmx_sfree_implI8t_symtabEvPKcS2_iPT_(ptr noundef %0, ptr noundef %1, i32 noundef %2, ptr noundef %3) #2 {
  %5 = alloca ptr, align 8
  %6 = alloca ptr, align 8
  %7 = alloca i32, align 4
  %8 = alloca ptr, align 8
  store ptr %0, ptr %5, align 8
  store ptr %1, ptr %6, align 8
  store i32 %2, ptr %7, align 4
  store ptr %3, ptr %8, align 8
  %9 = load ptr, ptr %5, align 8
  %10 = load ptr, ptr %6, align 8
  %11 = load i32, ptr %7, align 4
  %12 = load ptr, ptr %8, align 8
  call void @_Z9save_freePKcS0_iPv(ptr noundef %9, ptr noundef %10, i32 noundef %11, ptr noundef %12)
  ret void
}

; Function Attrs: mustprogress uwtable
define internal void @_ZL13gmx_snew_implI8t_symtabEvPKcS2_iRPT_m(ptr noundef %0, ptr noundef %1, i32 noundef %2, ptr noundef nonnull align 8 dereferenceable(8) %3, i64 noundef %4) #2 {
  %6 = alloca ptr, align 8
  %7 = alloca ptr, align 8
  %8 = alloca i32, align 4
  %9 = alloca ptr, align 8
  %10 = alloca i64, align 8
  store ptr %0, ptr %6, align 8
  store ptr %1, ptr %7, align 8
  store i32 %2, ptr %8, align 4
  store ptr %3, ptr %9, align 8
  store i64 %4, ptr %10, align 8
  %11 = load ptr, ptr %6, align 8
  %12 = load ptr, ptr %7, align 8
  %13 = load i32, ptr %8, align 4
  %14 = load i64, ptr %10, align 8
  %15 = call noundef ptr @_Z11save_callocPKcS0_imm(ptr noundef %11, ptr noundef %12, i32 noundef %13, i64 noundef %14, i64 noundef 16)
  %16 = load ptr, ptr %9, align 8
  store ptr %15, ptr %16, align 8
  ret void
}

; Function Attrs: mustprogress uwtable
define internal noundef zeroext i1 @_ZL10pdb_next_xP11t_trxstatusP8_IO_FILEP10t_trxframe(ptr noundef %0, ptr noundef %1, ptr noundef %2) #2 personality ptr @__gxx_personality_v0 {
  %4 = alloca i1, align 1
  %5 = alloca ptr, align 8
  %6 = alloca ptr, align 8
  %7 = alloca ptr, align 8
  %8 = alloca %struct.t_atoms, align 8
  %9 = alloca ptr, align 8
  %10 = alloca [3 x [3 x float]], align 16
  %11 = alloca i32, align 4
  %12 = alloca i32, align 4
  %13 = alloca i32, align 4
  %14 = alloca [4096 x i8], align 16
  %15 = alloca ptr, align 8
  %16 = alloca ptr, align 8
  %17 = alloca double, align 8
  %18 = alloca %"class.std::filesystem::__cxx11::path", align 8
  %19 = alloca ptr, align 8
  %20 = alloca i32, align 4
  store ptr %0, ptr %5, align 8
  store ptr %1, ptr %6, align 8
  store ptr %2, ptr %7, align 8
  store i32 -1, ptr %12, align 4
  %21 = load ptr, ptr %7, align 8
  %22 = getelementptr inbounds %struct.t_trxframe, ptr %21, i32 0, i32 2
  %23 = load i32, ptr %22, align 8
  %24 = getelementptr inbounds %struct.t_atoms, ptr %8, i32 0, i32 0
  store i32 %23, ptr %24, align 8
  %25 = getelementptr inbounds %struct.t_atoms, ptr %8, i32 0, i32 1
  store ptr null, ptr %25, align 8
  %26 = getelementptr inbounds %struct.t_atoms, ptr %8, i32 0, i32 7
  store ptr null, ptr %26, align 8
  call void @_ZL13gmx_snew_implI8t_symtabEvPKcS2_iRPT_m(ptr noundef @.str.30, ptr noundef @.str.2, i32 noundef 756, ptr noundef nonnull align 8 dereferenceable(8) %9, i64 noundef 1)
  %27 = load ptr, ptr %9, align 8
  call void @_Z11open_symtabP8t_symtab(ptr noundef %27)
  %28 = load ptr, ptr %6, align 8
  %29 = getelementptr inbounds [4096 x i8], ptr %14, i64 0, i64 0
  %30 = load ptr, ptr %9, align 8
  %31 = load ptr, ptr %7, align 8
  %32 = getelementptr inbounds %struct.t_trxframe, ptr %31, i32 0, i32 16
  %33 = load ptr, ptr %32, align 8
  %34 = getelementptr inbounds [3 x [3 x float]], ptr %10, i64 0, i64 0
  %35 = call noundef i32 @_Z12read_pdbfileP8_IO_FILEPcPiP7t_atomsP8t_symtabPA3_fP7PbcTypeS8_P12gmx_conect_t(ptr noundef %28, ptr noundef %29, ptr noundef %12, ptr noundef %8, ptr noundef %30, ptr noundef %33, ptr noundef %11, ptr noundef %34, ptr noundef null)
  store i32 %35, ptr %13, align 4
  %36 = load ptr, ptr %9, align 8
  call void @_Z11free_symtabP8t_symtab(ptr noundef %36)
  %37 = load ptr, ptr %9, align 8
  call void @_ZL14gmx_sfree_implI8t_symtabEvPKcS2_iPT_(ptr noundef @.str.30, ptr noundef @.str.2, i32 noundef 760, ptr noundef %37)
  %38 = load ptr, ptr %7, align 8
  %39 = load i32, ptr %11, align 4
  call void @_Z18setTrxFramePbcTypeP10t_trxframe7PbcType(ptr noundef %38, i32 noundef %39)
  %40 = load ptr, ptr %5, align 8
  %41 = call noundef i32 @_Z12nframes_readP11t_trxstatus(ptr noundef %40)
  %42 = icmp eq i32 %41, 0
  br i1 %42, label %43, label %50

43:                                               ; preds = %3
  %44 = load ptr, ptr @stderr, align 8
  %45 = getelementptr inbounds [4096 x i8], ptr %14, i64 0, i64 0
  %46 = load ptr, ptr %7, align 8
  %47 = getelementptr inbounds %struct.t_trxframe, ptr %46, i32 0, i32 2
  %48 = load i32, ptr %47, align 8
  %49 = call i32 (ptr, ptr, ...) @fprintf(ptr noundef %44, ptr noundef @.str.31, ptr noundef %45, i32 noundef %48) #12
  br label %50

50:                                               ; preds = %43, %3
  %51 = load ptr, ptr %7, align 8
  %52 = getelementptr inbounds %struct.t_trxframe, ptr %51, i32 0, i32 13
  store i8 1, ptr %52, align 8
  %53 = load ptr, ptr %7, align 8
  %54 = getelementptr inbounds %struct.t_trxframe, ptr %53, i32 0, i32 14
  store float 1.000000e+04, ptr %54, align 4
  %55 = load ptr, ptr %7, align 8
  %56 = getelementptr inbounds %struct.t_trxframe, ptr %55, i32 0, i32 15
  store i8 1, ptr %56, align 8
  %57 = getelementptr inbounds [3 x [3 x float]], ptr %10, i64 0, i64 0
  %58 = getelementptr inbounds [3 x float], ptr %57, i64 0, i64 0
  %59 = load float, ptr %58, align 16
  %60 = fpext float %59 to double
  %61 = fcmp une double %60, 0.000000e+00
  %62 = load ptr, ptr %7, align 8
  %63 = getelementptr inbounds %struct.t_trxframe, ptr %62, i32 0, i32 21
  %64 = zext i1 %61 to i8
  store i8 %64, ptr %63, align 8
  %65 = load ptr, ptr %7, align 8
  %66 = getelementptr inbounds %struct.t_trxframe, ptr %65, i32 0, i32 21
  %67 = load i8, ptr %66, align 8
  %68 = trunc i8 %67 to i1
  br i1 %68, label %69, label %74

69:                                               ; preds = %50
  %70 = getelementptr inbounds [3 x [3 x float]], ptr %10, i64 0, i64 0
  %71 = load ptr, ptr %7, align 8
  %72 = getelementptr inbounds %struct.t_trxframe, ptr %71, i32 0, i32 22
  %73 = getelementptr inbounds [3 x [3 x float]], ptr %72, i64 0, i64 0
  call void @_ZL8copy_matPA3_KfPA3_f(ptr noundef %70, ptr noundef %73)
  br label %74

74:                                               ; preds = %69, %50
  %75 = load ptr, ptr %7, align 8
  %76 = getelementptr inbounds %struct.t_trxframe, ptr %75, i32 0, i32 4
  store i64 0, ptr %76, align 8
  %77 = getelementptr inbounds [4096 x i8], ptr %14, i64 0, i64 0
  %78 = call noundef ptr @strstr(ptr noundef %77, ptr noundef @.str.32) #16
  store ptr %78, ptr %16, align 8
  %79 = load ptr, ptr %16, align 8
  %80 = icmp ne ptr %79, null
  br i1 %80, label %81, label %88

81:                                               ; preds = %74
  %82 = load ptr, ptr %16, align 8
  %83 = getelementptr inbounds i8, ptr %82, i64 7
  %84 = load ptr, ptr %7, align 8
  %85 = getelementptr inbounds %struct.t_trxframe, ptr %84, i32 0, i32 4
  %86 = call i32 (ptr, ptr, ...) @__isoc99_sscanf(ptr noundef %83, ptr noundef @.str.33, ptr noundef %85) #12
  %87 = icmp eq i32 %86, 1
  br label %88

88:                                               ; preds = %81, %74
  %89 = phi i1 [ false, %74 ], [ %87, %81 ]
  %90 = load ptr, ptr %7, align 8
  %91 = getelementptr inbounds %struct.t_trxframe, ptr %90, i32 0, i32 3
  %92 = zext i1 %89 to i8
  store i8 %92, ptr %91, align 4
  store double 0.000000e+00, ptr %17, align 8
  %93 = getelementptr inbounds [4096 x i8], ptr %14, i64 0, i64 0
  %94 = call noundef ptr @strstr(ptr noundef %93, ptr noundef @.str.34) #16
  store ptr %94, ptr %15, align 8
  %95 = load ptr, ptr %15, align 8
  %96 = icmp ne ptr %95, null
  br i1 %96, label %97, label %102

97:                                               ; preds = %88
  %98 = load ptr, ptr %15, align 8
  %99 = getelementptr inbounds i8, ptr %98, i64 4
  %100 = call i32 (ptr, ptr, ...) @__isoc99_sscanf(ptr noundef %99, ptr noundef @.str.35, ptr noundef %17) #12
  %101 = icmp eq i32 %100, 1
  br label %102

102:                                              ; preds = %97, %88
  %103 = phi i1 [ false, %88 ], [ %101, %97 ]
  %104 = load ptr, ptr %7, align 8
  %105 = getelementptr inbounds %struct.t_trxframe, ptr %104, i32 0, i32 5
  %106 = zext i1 %103 to i8
  store i8 %106, ptr %105, align 8
  %107 = load double, ptr %17, align 8
  %108 = fptrunc double %107 to float
  %109 = load ptr, ptr %7, align 8
  %110 = getelementptr inbounds %struct.t_trxframe, ptr %109, i32 0, i32 6
  store float %108, ptr %110, align 4
  %111 = load i32, ptr %13, align 4
  %112 = icmp eq i32 %111, 0
  br i1 %112, label %113, label %114

113:                                              ; preds = %102
  store i1 false, ptr %4, align 1
  br label %133

114:                                              ; preds = %102
  %115 = load i32, ptr %13, align 4
  %116 = load ptr, ptr %7, align 8
  %117 = getelementptr inbounds %struct.t_trxframe, ptr %116, i32 0, i32 2
  %118 = load i32, ptr %117, align 8
  %119 = icmp ne i32 %115, %118
  br i1 %119, label %120, label %132

120:                                              ; preds = %114
  call void @_ZNSt10filesystem7__cxx114pathC2IA122_cS1_EERKT_NS1_6formatE(ptr noundef nonnull align 8 dereferenceable(40) %18, ptr noundef nonnull align 1 dereferenceable(122) @.str.2, i8 noundef zeroext 2)
  %121 = load ptr, ptr %5, align 8
  %122 = call noundef i32 @_Z12nframes_readP11t_trxstatus(ptr noundef %121)
  %123 = load i32, ptr %13, align 4
  %124 = load ptr, ptr %7, align 8
  %125 = getelementptr inbounds %struct.t_trxframe, ptr %124, i32 0, i32 2
  %126 = load i32, ptr %125, align 8
  invoke void (i32, ptr, i32, ptr, ...) @_Z9gmx_fataliRKNSt10filesystem7__cxx114pathEiPKcz(i32 noundef 0, ptr noundef nonnull align 8 dereferenceable(40) %18, i32 noundef 792, ptr noundef @.str.36, i32 noundef %122, i32 noundef %123, i32 noundef %126) #13
          to label %127 unwind label %128

127:                                              ; preds = %120
  unreachable

128:                                              ; preds = %120
  %129 = landingpad { ptr, i32 }
          cleanup
  %130 = extractvalue { ptr, i32 } %129, 0
  store ptr %130, ptr %19, align 8
  %131 = extractvalue { ptr, i32 } %129, 1
  store i32 %131, ptr %20, align 4
  call void @_ZNSt10filesystem7__cxx114pathD2Ev(ptr noundef nonnull align 8 dereferenceable(40) %18) #12
  br label %135

132:                                              ; preds = %114
  store i1 true, ptr %4, align 1
  br label %133

133:                                              ; preds = %132, %113
  %134 = load i1, ptr %4, align 1
  ret i1 %134

135:                                              ; preds = %128
  %136 = load ptr, ptr %19, align 8
  %137 = load i32, ptr %20, align 4
  %138 = insertvalue { ptr, i32 } poison, ptr %136, 0
  %139 = insertvalue { ptr, i32 } %138, i32 %137, 1
  resume { ptr, i32 } %139
}