; Function Attrs: mustprogress uwtable
define internal fastcc noundef zeroext i1 @_ZL10pdb_next_xP11t_trxstatusP8_IO_FILEP10t_trxframe(ptr nocapture noundef readonly %0, ptr noundef %1, ptr noundef %2) unnamed_addr #2 personality ptr @__gxx_personality_v0 {
  %4 = alloca %struct.t_atoms, align 8
  %5 = alloca [3 x [3 x float]], align 16
  %6 = alloca i32, align 4
  %7 = alloca i32, align 4
  %8 = alloca [4096 x i8], align 16
  %9 = alloca double, align 8
  %10 = alloca %"class.std::filesystem::__cxx11::path", align 8
  store i32 -1, ptr %7, align 4
  %11 = getelementptr inbounds i8, ptr %2, i64 8
  %12 = load i32, ptr %11, align 8
  store i32 %12, ptr %4, align 8
  %13 = getelementptr inbounds i8, ptr %4, i64 8
  store ptr null, ptr %13, align 8
  %14 = getelementptr inbounds i8, ptr %4, i64 56
  store ptr null, ptr %14, align 8
  %15 = tail call noundef ptr @_Z11save_callocPKcS0_imm(ptr noundef nonnull @.str.30, ptr noundef nonnull @.str.2, i32 noundef 756, i64 noundef 1, i64 noundef 16)
  tail call void @_Z11open_symtabP8t_symtab(ptr noundef %15)
  %16 = getelementptr inbounds i8, ptr %2, i64 72
  %17 = load ptr, ptr %16, align 8
  %18 = call noundef i32 @_Z12read_pdbfileP8_IO_FILEPcPiP7t_atomsP8t_symtabPA3_fP7PbcTypeS8_P12gmx_conect_t(ptr noundef %1, ptr noundef nonnull %8, ptr noundef nonnull %7, ptr noundef nonnull %4, ptr noundef %15, ptr noundef %17, ptr noundef nonnull %6, ptr noundef nonnull %5, ptr noundef null)
  call void @_Z11free_symtabP8t_symtab(ptr noundef %15)
  call void @_Z9save_freePKcS0_iPv(ptr noundef nonnull @.str.30, ptr noundef nonnull @.str.2, i32 noundef 760, ptr noundef %15)
  %19 = load i32, ptr %6, align 4
  %20 = icmp eq i32 %19, 4
  %21 = getelementptr inbounds i8, ptr %2, i64 152
  %22 = zext i1 %20 to i8
  store i8 %22, ptr %21, align 8
  %23 = getelementptr inbounds i8, ptr %2, i64 156
  store i32 %19, ptr %23, align 4
  %24 = getelementptr inbounds i8, ptr %0, i64 4
  %25 = load i32, ptr %24, align 4
  %26 = icmp eq i32 %25, 0
  br i1 %26, label %27, label %31

27:                                               ; preds = %3
  %28 = load ptr, ptr @stderr, align 8
  %29 = load i32, ptr %11, align 8
  %30 = call i32 (ptr, ptr, ...) @fprintf(ptr noundef %28, ptr noundef nonnull @.str.31, ptr noundef nonnull %8, i32 noundef %29) #21
  br label %31

31:                                               ; preds = %27, %3
  %32 = getelementptr inbounds i8, ptr %2, i64 56
  store i8 1, ptr %32, align 8
  %33 = getelementptr inbounds i8, ptr %2, i64 60
  store float 1.000000e+04, ptr %33, align 4
  %34 = getelementptr inbounds i8, ptr %2, i64 64
  store i8 1, ptr %34, align 8
  %35 = load float, ptr %5, align 16
  %36 = fcmp une float %35, 0.000000e+00
  %37 = getelementptr inbounds i8, ptr %2, i64 112
  %38 = zext i1 %36 to i8
  store i8 %38, ptr %37, align 8
  br i1 %36, label %39, label %44

39:                                               ; preds = %31
  %40 = getelementptr inbounds i8, ptr %2, i64 116
  store float %35, ptr %40, align 4
  %41 = getelementptr inbounds i8, ptr %5, i64 4
  %42 = getelementptr inbounds i8, ptr %2, i64 120
  %43 = load <8 x float>, ptr %41, align 4
  store <8 x float> %43, ptr %42, align 4
  br label %44

44:                                               ; preds = %39, %31
  %45 = getelementptr inbounds i8, ptr %2, i64 16
  store i64 0, ptr %45, align 8
  %46 = call noundef ptr @strstr(ptr noundef nonnull dereferenceable(1) %8, ptr noundef nonnull dereferenceable(1) @.str.32) #22
  %.not = icmp eq ptr %46, null
  br i1 %.not, label %52, label %47

47:                                               ; preds = %44
  %48 = getelementptr inbounds i8, ptr %46, i64 7
  %49 = call i32 (ptr, ptr, ...) @__isoc99_sscanf(ptr noundef nonnull %48, ptr noundef nonnull @.str.33, ptr noundef nonnull %45) #18
  %50 = icmp eq i32 %49, 1
  %51 = zext i1 %50 to i8
  br label %52

52:                                               ; preds = %47, %44
  %53 = phi i8 [ 0, %44 ], [ %51, %47 ]
  %54 = getelementptr inbounds i8, ptr %2, i64 12
  store i8 %53, ptr %54, align 4
  store double 0.000000e+00, ptr %9, align 8
  %55 = call noundef ptr @strstr(ptr noundef nonnull dereferenceable(1) %8, ptr noundef nonnull dereferenceable(1) @.str.34) #22
  %.not32 = icmp eq ptr %55, null
  br i1 %.not32, label %62, label %56

56:                                               ; preds = %52
  %57 = getelementptr inbounds i8, ptr %55, i64 4
  %58 = call i32 (ptr, ptr, ...) @__isoc99_sscanf(ptr noundef nonnull %57, ptr noundef nonnull @.str.35, ptr noundef nonnull %9) #18
  %59 = icmp eq i32 %58, 1
  %60 = zext i1 %59 to i8
  %.pre = load double, ptr %9, align 8
  %61 = fptrunc double %.pre to float
  br label %62

62:                                               ; preds = %56, %52
  %63 = phi float [ 0.000000e+00, %52 ], [ %61, %56 ]
  %64 = phi i8 [ 0, %52 ], [ %60, %56 ]
  %65 = getelementptr inbounds i8, ptr %2, i64 24
  store i8 %64, ptr %65, align 8
  %66 = getelementptr inbounds i8, ptr %2, i64 28
  store float %63, ptr %66, align 4
  %67 = icmp ne i32 %18, 0
  br i1 %67, label %68, label %76

68:                                               ; preds = %62
  %69 = load i32, ptr %11, align 8
  %.not33 = icmp eq i32 %18, %69
  br i1 %.not33, label %76, label %70

70:                                               ; preds = %68
  call void @_ZNSt10filesystem7__cxx114pathC2IA122_cS1_EERKT_NS1_6formatE(ptr noundef nonnull align 8 dereferenceable(40) %10, ptr noundef nonnull align 1 dereferenceable(122) @.str.2, i8 noundef zeroext 2)
  %71 = load i32, ptr %24, align 4
  %72 = load i32, ptr %11, align 8
  invoke void (i32, ptr, i32, ptr, ...) @_Z9gmx_fataliRKNSt10filesystem7__cxx114pathEiPKcz(i32 noundef 0, ptr noundef nonnull align 8 dereferenceable(40) %10, i32 noundef 792, ptr noundef nonnull @.str.36, i32 noundef %71, i32 noundef %18, i32 noundef %72) #19
          to label %73 unwind label %74

73:                                               ; preds = %70
  unreachable

74:                                               ; preds = %70
  %75 = landingpad { ptr, i32 }
          cleanup
  call void @_ZNSt10filesystem7__cxx114pathD2Ev(ptr noundef nonnull align 8 dereferenceable(40) %10) #18
  resume { ptr, i32 } %75

76:                                               ; preds = %68, %62
  ret i1 %67
}